; Function Attrs: mustprogress uwtable
define void @_ZN9grpc_core16ResetDNSResolverESt10shared_ptrINS_11DNSResolverEE(ptr noundef captures(none) %0) local_unnamed_addr #3 personality ptr @__gxx_personality_v0 {
  %2 = load ptr, ptr %0, align 8, !tbaa !3
  %3 = getelementptr inbounds nuw i8, ptr %0, i64 8
  %4 = load ptr, ptr %3, align 8, !tbaa !11
  tail call void @llvm.memset.p0.i64(ptr noundef nonnull align 8 dereferenceable(16) %0, i8 0, i64 16, i1 false)
  store ptr %2, ptr @_ZN9grpc_core12_GLOBAL__N_114g_dns_resolverE, align 8, !tbaa !12
  %5 = load ptr, ptr getelementptr inbounds nuw (i8, ptr @_ZN9grpc_core12_GLOBAL__N_114g_dns_resolverE, i64 8), align 8, !tbaa !11
  store ptr %4, ptr getelementptr inbounds nuw (i8, ptr @_ZN9grpc_core12_GLOBAL__N_114g_dns_resolverE, i64 8), align 8, !tbaa !11
  %.not.i.i.i.i = icmp eq ptr %5, null
  br i1 %.not.i.i.i.i, label %_ZNSt10shared_ptrIN9grpc_core11DNSResolverEEaSEOS2_.exit, label %6

6:                                                ; preds = %1
  %7 = getelementptr inbounds nuw i8, ptr %5, i64 8
  %8 = load atomic i64, ptr %7 acquire, align 8
  %9 = icmp eq i64 %8, 4294967297
  %10 = trunc i64 %8 to i32
  br i1 %9, label %11, label %19

11:                                               ; preds = %6
  store i32 0, ptr %7, align 8, !tbaa !13
  %12 = getelementptr inbounds nuw i8, ptr %5, i64 12
  store i32 0, ptr %12, align 4, !tbaa !16
  %13 = load ptr, ptr %5, align 8, !tbaa !17
  %14 = getelementptr inbounds nuw i8, ptr %13, i64 16
  %15 = load ptr, ptr %14, align 8
  tail call void %15(ptr noundef nonnull align 8 dereferenceable(16) %5) #10
  %16 = load ptr, ptr %5, align 8, !tbaa !17
  %17 = getelementptr inbounds nuw i8, ptr %16, i64 24
  %18 = load ptr, ptr %17, align 8
  tail call void %18(ptr noundef nonnull align 8 dereferenceable(16) %5) #10
  br label %_ZNSt10shared_ptrIN9grpc_core11DNSResolverEEaSEOS2_.exit

19:                                               ; preds = %6
  %20 = load i8, ptr @__libc_single_threaded, align 1, !tbaa !19
  %.not.i.i.i.i.i = icmp eq i8 %20, 0
  br i1 %.not.i.i.i.i.i, label %23, label %21

21:                                               ; preds = %19
  %22 = add nsw i32 %10, -1
  store i32 %22, ptr %7, align 4, !tbaa !20
  br label %_ZN9__gnu_cxx27__exchange_and_add_dispatchEPii.exit.i.i.i.i.i

23:                                               ; preds = %19
  %24 = atomicrmw volatile add ptr %7, i32 -1 acq_rel, align 4
  br label %_ZN9__gnu_cxx27__exchange_and_add_dispatchEPii.exit.i.i.i.i.i

_ZN9__gnu_cxx27__exchange_and_add_dispatchEPii.exit.i.i.i.i.i: ; preds = %23, %21
  %.0.i.i.i.i.i.i = phi i32 [ %10, %21 ], [ %24, %23 ]
  %25 = icmp eq i32 %.0.i.i.i.i.i.i, 1
  br i1 %25, label %26, label %_ZNSt10shared_ptrIN9grpc_core11DNSResolverEEaSEOS2_.exit, !prof !21

26:                                               ; preds = %_ZN9__gnu_cxx27__exchange_and_add_dispatchEPii.exit.i.i.i.i.i
  tail call void @_ZNSt16_Sp_counted_baseILN9__gnu_cxx12_Lock_policyE2EE24_M_release_last_use_coldEv(ptr noundef nonnull align 8 dereferenceable(16) %5) #10
  br label %_ZNSt10shared_ptrIN9grpc_core11DNSResolverEEaSEOS2_.exit

_ZNSt10shared_ptrIN9grpc_core11DNSResolverEEaSEOS2_.exit: ; preds = %1, %11, %_ZN9__gnu_cxx27__exchange_and_add_dispatchEPii.exit.i.i.i.i.i, %26
  ret void
}